target datalayout = "e-m:e-p270:32:32-p271:32:32-p272:64:64-i64:64-i128:128-f80:128-n8:16:32:64-S128"
target triple = "x86_64-pc-linux-gnu"

%struct.TT_GraphicsState_ = type { i16, i16, i16, %struct.FT_UnitVector_, %struct.FT_UnitVector_, %struct.FT_UnitVector_, i64, i64, i32, i8, i64, i64, i64, i16, i16, i8, i8, i32, i16, i16, i16 }
%struct.FT_UnitVector_ = type { i16, i16 }
%struct.TT_GlyphZoneRec_ = type { ptr, i16, i16, i16, i16, ptr, ptr, ptr, ptr, ptr, i16 }
%struct.FT_Size_Metrics_ = type { i16, i16, i64, i64, i64, i64, i64, i64 }
%struct.TT_Size_Metrics_ = type { i64, i64, i16, i64, i64, [4 x i64], i8, i8, i8 }
%struct.TT_CodeRange_ = type { ptr, i64 }
%struct.TT_ExecContextRec_ = type { ptr, ptr, ptr, i32, i64, i64, ptr, i64, i64, %struct.TT_GlyphZoneRec_, %struct.TT_GlyphZoneRec_, %struct.TT_GlyphZoneRec_, %struct.TT_GlyphZoneRec_, %struct.TT_GlyphZoneRec_, i64, %struct.FT_Size_Metrics_, %struct.TT_Size_Metrics_, %struct.TT_GraphicsState_, i32, i32, ptr, i64, i64, i8, i32, i8, i64, ptr, i64, ptr, i32, ptr, i32, i32, ptr, i32, i32, ptr, i32, i32, i32, i32, ptr, i16, i16, [3 x %struct.TT_CodeRange_], i16, ptr, i16, ptr, i64, i64, i64, i8, %struct.TT_GraphicsState_, i8, i8, i64, ptr, ptr, ptr, ptr, ptr, ptr, ptr, ptr, ptr, ptr, i8, i8, i8, i8, i8, i8, i8, i64, i64, i64, i64 }
%struct.TT_DefRecord_ = type { i32, i64, i64, i32, i8 }
%struct.TT_CallRec_ = type { i32, i64, i64, ptr }

; Function Attrs: nounwind uwtable
define internal zeroext i8 @Ins_Goto_CodeRange(ptr noundef %0, i32 noundef %1, i64 noundef %2) #0 {
  %4 = alloca i8, align 1
  %5 = alloca ptr, align 8
  %6 = alloca i32, align 4
  %7 = alloca i64, align 8
  %8 = alloca ptr, align 8
  store ptr %0, ptr %5, align 8
  store i32 %1, ptr %6, align 4
  store i64 %2, ptr %7, align 8
  %9 = load i32, ptr %6, align 4
  %10 = icmp slt i32 %9, 1
  br i1 %10, label %14, label %11

11:                                               ; preds = %3
  %12 = load i32, ptr %6, align 4
  %13 = icmp sgt i32 %12, 3
  br i1 %13, label %14, label %17

14:                                               ; preds = %11, %3
  %15 = load ptr, ptr %5, align 8
  %16 = getelementptr inbounds %struct.TT_ExecContextRec_, ptr %15, i32 0, i32 3
  store i32 132, ptr %16, align 8
  store i8 1, ptr %4, align 1
  br label %57

17:                                               ; preds = %11
  %18 = load ptr, ptr %5, align 8
  %19 = getelementptr inbounds %struct.TT_ExecContextRec_, ptr %18, i32 0, i32 45
  %20 = load i32, ptr %6, align 4
  %21 = sub nsw i32 %20, 1
  %22 = sext i32 %21 to i64
  %23 = getelementptr inbounds [3 x %struct.TT_CodeRange_], ptr %19, i64 0, i64 %22
  store ptr %23, ptr %8, align 8
  %24 = load ptr, ptr %8, align 8
  %25 = getelementptr inbounds %struct.TT_CodeRange_, ptr %24, i32 0, i32 0
  %26 = load ptr, ptr %25, align 8
  %27 = icmp ne ptr %26, null
  br i1 %27, label %31, label %28

28:                                               ; preds = %17
  %29 = load ptr, ptr %5, align 8
  %30 = getelementptr inbounds %struct.TT_ExecContextRec_, ptr %29, i32 0, i32 3
  store i32 138, ptr %30, align 8
  store i8 1, ptr %4, align 1
  br label %57

31:                                               ; preds = %17
  %32 = load i64, ptr %7, align 8
  %33 = load ptr, ptr %8, align 8
  %34 = getelementptr inbounds %struct.TT_CodeRange_, ptr %33, i32 0, i32 1
  %35 = load i64, ptr %34, align 8
  %36 = icmp sgt i64 %32, %35
  br i1 %36, label %37, label %40

37:                                               ; preds = %31
  %38 = load ptr, ptr %5, align 8
  %39 = getelementptr inbounds %struct.TT_ExecContextRec_, ptr %38, i32 0, i32 3
  store i32 131, ptr %39, align 8
  store i8 1, ptr %4, align 1
  br label %57

40:                                               ; preds = %31
  %41 = load ptr, ptr %8, align 8
  %42 = getelementptr inbounds %struct.TT_CodeRange_, ptr %41, i32 0, i32 0
  %43 = load ptr, ptr %42, align 8
  %44 = load ptr, ptr %5, align 8
  %45 = getelementptr inbounds %struct.TT_ExecContextRec_, ptr %44, i32 0, i32 20
  store ptr %43, ptr %45, align 8
  %46 = load ptr, ptr %8, align 8
  %47 = getelementptr inbounds %struct.TT_CodeRange_, ptr %46, i32 0, i32 1
  %48 = load i64, ptr %47, align 8
  %49 = load ptr, ptr %5, align 8
  %50 = getelementptr inbounds %struct.TT_ExecContextRec_, ptr %49, i32 0, i32 22
  store i64 %48, ptr %50, align 8
  %51 = load i64, ptr %7, align 8
  %52 = load ptr, ptr %5, align 8
  %53 = getelementptr inbounds %struct.TT_ExecContextRec_, ptr %52, i32 0, i32 21
  store i64 %51, ptr %53, align 8
  %54 = load i32, ptr %6, align 4
  %55 = load ptr, ptr %5, align 8
  %56 = getelementptr inbounds %struct.TT_ExecContextRec_, ptr %55, i32 0, i32 19
  store i32 %54, ptr %56, align 4
  store i8 0, ptr %4, align 1
  br label %57

57:                                               ; preds = %40, %37, %28, %14
  %58 = load i8, ptr %4, align 1
  ret i8 %58
}

; Function Attrs: nounwind uwtable
define internal void @Ins_CALL(ptr noundef %0, ptr noundef %1) #0 {
  %3 = alloca ptr, align 8
  %4 = alloca ptr, align 8
  %5 = alloca i64, align 8
  %6 = alloca ptr, align 8
  %7 = alloca ptr, align 8
  %8 = alloca ptr, align 8
  store ptr %0, ptr %3, align 8
  store ptr %1, ptr %4, align 8
  %9 = load ptr, ptr %4, align 8
  %10 = getelementptr inbounds i64, ptr %9, i64 0
  %11 = load i64, ptr %10, align 8
  store i64 %11, ptr %5, align 8
  %12 = load i64, ptr %5, align 8
  %13 = load ptr, ptr %3, align 8
  %14 = getelementptr inbounds %struct.TT_ExecContextRec_, ptr %13, i32 0, i32 38
  %15 = load i32, ptr %14, align 8
  %16 = add i32 %15, 1
  %17 = zext i32 %16 to i64
  %18 = icmp uge i64 %12, %17
  br i1 %18, label %19, label %20

19:                                               ; preds = %2
  br label %135

20:                                               ; preds = %2
  %21 = load ptr, ptr %3, align 8
  %22 = getelementptr inbounds %struct.TT_ExecContextRec_, ptr %21, i32 0, i32 34
  %23 = load ptr, ptr %22, align 8
  %24 = icmp ne ptr %23, null
  br i1 %24, label %26, label %25

25:                                               ; preds = %20
  br label %135

26:                                               ; preds = %20
  %27 = load ptr, ptr %3, align 8
  %28 = getelementptr inbounds %struct.TT_ExecContextRec_, ptr %27, i32 0, i32 34
  %29 = load ptr, ptr %28, align 8
  %30 = load i64, ptr %5, align 8
  %31 = getelementptr inbounds %struct.TT_DefRecord_, ptr %29, i64 %30
  store ptr %31, ptr %7, align 8
  %32 = load ptr, ptr %3, align 8
  %33 = getelementptr inbounds %struct.TT_ExecContextRec_, ptr %32, i32 0, i32 38
  %34 = load i32, ptr %33, align 8
  %35 = add i32 %34, 1
  %36 = load ptr, ptr %3, align 8
  %37 = getelementptr inbounds %struct.TT_ExecContextRec_, ptr %36, i32 0, i32 32
  %38 = load i32, ptr %37, align 8
  %39 = icmp ne i32 %35, %38
  br i1 %39, label %47, label %40

40:                                               ; preds = %26
  %41 = load ptr, ptr %7, align 8
  %42 = getelementptr inbounds %struct.TT_DefRecord_, ptr %41, i32 0, i32 3
  %43 = load i32, ptr %42, align 8
  %44 = zext i32 %43 to i64
  %45 = load i64, ptr %5, align 8
  %46 = icmp ne i64 %44, %45
  br i1 %46, label %47, label %79

47:                                               ; preds = %40, %26
  %48 = load ptr, ptr %3, align 8
  %49 = getelementptr inbounds %struct.TT_ExecContextRec_, ptr %48, i32 0, i32 34
  %50 = load ptr, ptr %49, align 8
  store ptr %50, ptr %7, align 8
  %51 = load ptr, ptr %7, align 8
  %52 = load ptr, ptr %3, align 8
  %53 = getelementptr inbounds %struct.TT_ExecContextRec_, ptr %52, i32 0, i32 32
  %54 = load i32, ptr %53, align 8
  %55 = zext i32 %54 to i64
  %56 = getelementptr inbounds %struct.TT_DefRecord_, ptr %51, i64 %55
  store ptr %56, ptr %8, align 8
  br label %57

57:                                               ; preds = %70, %47
  %58 = load ptr, ptr %7, align 8
  %59 = load ptr, ptr %8, align 8
  %60 = icmp ult ptr %58, %59
  br i1 %60, label %61, label %68

61:                                               ; preds = %57
  %62 = load ptr, ptr %7, align 8
  %63 = getelementptr inbounds %struct.TT_DefRecord_, ptr %62, i32 0, i32 3
  %64 = load i32, ptr %63, align 8
  %65 = zext i32 %64 to i64
  %66 = load i64, ptr %5, align 8
  %67 = icmp ne i64 %65, %66
  br label %68

68:                                               ; preds = %61, %57
  %69 = phi i1 [ false, %57 ], [ %67, %61 ]
  br i1 %69, label %70, label %73

70:                                               ; preds = %68
  %71 = load ptr, ptr %7, align 8
  %72 = getelementptr inbounds %struct.TT_DefRecord_, ptr %71, i32 1
  store ptr %72, ptr %7, align 8
  br label %57, !llvm.loop !13

73:                                               ; preds = %68
  %74 = load ptr, ptr %7, align 8
  %75 = load ptr, ptr %8, align 8
  %76 = icmp eq ptr %74, %75
  br i1 %76, label %77, label %78

77:                                               ; preds = %73
  br label %135

78:                                               ; preds = %73
  br label %79

79:                                               ; preds = %78, %40
  %80 = load ptr, ptr %7, align 8
  %81 = getelementptr inbounds %struct.TT_DefRecord_, ptr %80, i32 0, i32 4
  %82 = load i8, ptr %81, align 4
  %83 = icmp ne i8 %82, 0
  br i1 %83, label %85, label %84

84:                                               ; preds = %79
  br label %135

85:                                               ; preds = %79
  %86 = load ptr, ptr %3, align 8
  %87 = getelementptr inbounds %struct.TT_ExecContextRec_, ptr %86, i32 0, i32 40
  %88 = load i32, ptr %87, align 8
  %89 = load ptr, ptr %3, align 8
  %90 = getelementptr inbounds %struct.TT_ExecContextRec_, ptr %89, i32 0, i32 41
  %91 = load i32, ptr %90, align 4
  %92 = icmp sge i32 %88, %91
  br i1 %92, label %93, label %96

93:                                               ; preds = %85
  %94 = load ptr, ptr %3, align 8
  %95 = getelementptr inbounds %struct.TT_ExecContextRec_, ptr %94, i32 0, i32 3
  store i32 130, ptr %95, align 8
  br label %138

96:                                               ; preds = %85
  %97 = load ptr, ptr %3, align 8
  %98 = getelementptr inbounds %struct.TT_ExecContextRec_, ptr %97, i32 0, i32 42
  %99 = load ptr, ptr %98, align 8
  %100 = load ptr, ptr %3, align 8
  %101 = getelementptr inbounds %struct.TT_ExecContextRec_, ptr %100, i32 0, i32 40
  %102 = load i32, ptr %101, align 8
  %103 = sext i32 %102 to i64
  %104 = getelementptr inbounds %struct.TT_CallRec_, ptr %99, i64 %103
  store ptr %104, ptr %6, align 8
  %105 = load ptr, ptr %3, align 8
  %106 = getelementptr inbounds %struct.TT_ExecContextRec_, ptr %105, i32 0, i32 19
  %107 = load i32, ptr %106, align 4
  %108 = load ptr, ptr %6, align 8
  %109 = getelementptr inbounds %struct.TT_CallRec_, ptr %108, i32 0, i32 0
  store i32 %107, ptr %109, align 8
  %110 = load ptr, ptr %3, align 8
  %111 = getelementptr inbounds %struct.TT_ExecContextRec_, ptr %110, i32 0, i32 21
  %112 = load i64, ptr %111, align 8
  %113 = add nsw i64 %112, 1
  %114 = load ptr, ptr %6, align 8
  %115 = getelementptr inbounds %struct.TT_CallRec_, ptr %114, i32 0, i32 1
  store i64 %113, ptr %115, align 8
  %116 = load ptr, ptr %6, align 8
  %117 = getelementptr inbounds %struct.TT_CallRec_, ptr %116, i32 0, i32 2
  store i64 1, ptr %117, align 8
  %118 = load ptr, ptr %7, align 8
  %119 = load ptr, ptr %6, align 8
  %120 = getelementptr inbounds %struct.TT_CallRec_, ptr %119, i32 0, i32 3
  store ptr %118, ptr %120, align 8
  %121 = load ptr, ptr %3, align 8
  %122 = getelementptr inbounds %struct.TT_ExecContextRec_, ptr %121, i32 0, i32 40
  %123 = load i32, ptr %122, align 8
  %124 = add nsw i32 %123, 1
  store i32 %124, ptr %122, align 8
  %125 = load ptr, ptr %3, align 8
  %126 = load ptr, ptr %7, align 8
  %127 = getelementptr inbounds %struct.TT_DefRecord_, ptr %126, i32 0, i32 0
  %128 = load i32, ptr %127, align 8
  %129 = load ptr, ptr %7, align 8
  %130 = getelementptr inbounds %struct.TT_DefRecord_, ptr %129, i32 0, i32 1
  %131 = load i64, ptr %130, align 8
  %132 = call zeroext i8 @Ins_Goto_CodeRange(ptr noundef %125, i32 noundef %128, i64 noundef %131)
  %133 = load ptr, ptr %3, align 8
  %134 = getelementptr inbounds %struct.TT_ExecContextRec_, ptr %133, i32 0, i32 25
  store i8 0, ptr %134, align 8
  br label %138

135:                                              ; preds = %84, %77, %25, %19
  %136 = load ptr, ptr %3, align 8
  %137 = getelementptr inbounds %struct.TT_ExecContextRec_, ptr %136, i32 0, i32 3
  store i32 134, ptr %137, align 8
  br label %138

138:                                              ; preds = %135, %96, %93
  ret void
}