; Function Attrs: nofree norecurse nosync nounwind memory(readwrite, inaccessiblemem: none) uwtable
define internal fastcc void @Ins_CALL(ptr nocapture noundef %0, i64 %.0.val) unnamed_addr #10 {
  %2 = getelementptr inbounds i8, ptr %0, i64 760
  %3 = load i32, ptr %2, align 8
  %4 = add i32 %3, 1
  %5 = zext i32 %4 to i64
  %.not = icmp ugt i64 %5, %.0.val
  br i1 %.not, label %6, label %76

6:                                                ; preds = %1
  %7 = getelementptr inbounds i8, ptr %0, i64 736
  %8 = load ptr, ptr %7, align 8
  %.not41 = icmp eq ptr %8, null
  br i1 %.not41, label %76, label %9

9:                                                ; preds = %6
  %10 = getelementptr inbounds i8, ptr %0, i64 728
  %11 = load i32, ptr %10, align 8
  %.not42 = icmp eq i32 %4, %11
  br i1 %.not42, label %12, label %17

12:                                               ; preds = %9
  %13 = getelementptr inbounds %struct.TT_DefRecord_, ptr %8, i64 %.0.val
  %14 = getelementptr inbounds i8, ptr %13, i64 24
  %15 = load i32, ptr %14, align 8
  %16 = zext i32 %15 to i64
  %.not43 = icmp eq i64 %16, %.0.val
  br i1 %.not43, label %27, label %17

17:                                               ; preds = %12, %9
  %18 = zext i32 %11 to i64
  %19 = getelementptr inbounds %struct.TT_DefRecord_, ptr %8, i64 %18
  %.not4 = icmp eq i32 %11, 0
  br i1 %.not4, label %.critedge, label %.lr.ph

.lr.ph:                                           ; preds = %17, %23
  %.01 = phi ptr [ %24, %23 ], [ %8, %17 ]
  %20 = getelementptr inbounds i8, ptr %.01, i64 24
  %21 = load i32, ptr %20, align 8
  %22 = zext i32 %21 to i64
  %.not44 = icmp eq i64 %22, %.0.val
  br i1 %.not44, label %.critedge, label %23

23:                                               ; preds = %.lr.ph
  %24 = getelementptr inbounds i8, ptr %.01, i64 32
  %25 = icmp ult ptr %24, %19
  br i1 %25, label %.lr.ph, label %.critedge, !llvm.loop !26

.critedge:                                        ; preds = %.lr.ph, %23, %17
  %.0.lcssa = phi ptr [ %8, %17 ], [ %24, %23 ], [ %.01, %.lr.ph ]
  %26 = icmp eq ptr %.0.lcssa, %19
  br i1 %26, label %76, label %27

27:                                               ; preds = %.critedge, %12
  %.1 = phi ptr [ %.0.lcssa, %.critedge ], [ %13, %12 ]
  %28 = getelementptr inbounds i8, ptr %.1, i64 28
  %29 = load i8, ptr %28, align 4
  %.not45 = icmp eq i8 %29, 0
  br i1 %.not45, label %76, label %30

30:                                               ; preds = %27
  %31 = getelementptr inbounds i8, ptr %0, i64 768
  %32 = load i32, ptr %31, align 8
  %33 = getelementptr inbounds i8, ptr %0, i64 772
  %34 = load i32, ptr %33, align 4
  %.not46 = icmp slt i32 %32, %34
  br i1 %.not46, label %37, label %35

35:                                               ; preds = %30
  %36 = getelementptr inbounds i8, ptr %0, i64 24
  store i32 130, ptr %36, align 8
  br label %78

37:                                               ; preds = %30
  %38 = getelementptr inbounds i8, ptr %0, i64 776
  %39 = load ptr, ptr %38, align 8
  %40 = sext i32 %32 to i64
  %41 = getelementptr inbounds %struct.TT_CallRec_, ptr %39, i64 %40
  %42 = getelementptr inbounds i8, ptr %0, i64 636
  %43 = load i32, ptr %42, align 4
  store i32 %43, ptr %41, align 8
  %44 = getelementptr inbounds i8, ptr %0, i64 648
  %45 = load i64, ptr %44, align 8
  %46 = add nsw i64 %45, 1
  %47 = getelementptr inbounds i8, ptr %41, i64 8
  store i64 %46, ptr %47, align 8
  %48 = getelementptr inbounds i8, ptr %41, i64 16
  store i64 1, ptr %48, align 8
  %49 = getelementptr inbounds i8, ptr %41, i64 24
  store ptr %.1, ptr %49, align 8
  %50 = load i32, ptr %31, align 8
  %51 = add nsw i32 %50, 1
  store i32 %51, ptr %31, align 8
  %52 = load i32, ptr %.1, align 8
  %53 = getelementptr inbounds i8, ptr %.1, i64 8
  %54 = load i64, ptr %53, align 8
  %55 = add i32 %52, -4
  %or.cond.i = icmp ult i32 %55, -3
  br i1 %or.cond.i, label %56, label %58

56:                                               ; preds = %37
  %57 = getelementptr inbounds i8, ptr %0, i64 24
  store i32 132, ptr %57, align 8
  br label %Ins_Goto_CodeRange.exit

58:                                               ; preds = %37
  %59 = getelementptr inbounds i8, ptr %0, i64 792
  %60 = add nsw i32 %52, -1
  %61 = zext nneg i32 %60 to i64
  %62 = getelementptr inbounds [3 x %struct.TT_CodeRange_], ptr %59, i64 0, i64 %61
  %63 = load ptr, ptr %62, align 8
  %.not.i = icmp eq ptr %63, null
  br i1 %.not.i, label %64, label %66

64:                                               ; preds = %58
  %65 = getelementptr inbounds i8, ptr %0, i64 24
  store i32 138, ptr %65, align 8
  br label %Ins_Goto_CodeRange.exit

66:                                               ; preds = %58
  %67 = getelementptr inbounds i8, ptr %62, i64 8
  %68 = load i64, ptr %67, align 8
  %69 = icmp slt i64 %68, %54
  br i1 %69, label %70, label %72

70:                                               ; preds = %66
  %71 = getelementptr inbounds i8, ptr %0, i64 24
  store i32 131, ptr %71, align 8
  br label %Ins_Goto_CodeRange.exit

72:                                               ; preds = %66
  %73 = getelementptr inbounds i8, ptr %0, i64 640
  store ptr %63, ptr %73, align 8
  %74 = getelementptr inbounds i8, ptr %0, i64 656
  store i64 %68, ptr %74, align 8
  store i64 %54, ptr %44, align 8
  store i32 %52, ptr %42, align 4
  br label %Ins_Goto_CodeRange.exit

Ins_Goto_CodeRange.exit:                          ; preds = %56, %64, %70, %72
  %75 = getelementptr inbounds i8, ptr %0, i64 672
  store i8 0, ptr %75, align 8
  br label %78

76:                                               ; preds = %27, %.critedge, %6, %1
  %77 = getelementptr inbounds i8, ptr %0, i64 24
  store i32 134, ptr %77, align 8
  br label %78

78:                                               ; preds = %76, %Ins_Goto_CodeRange.exit, %35
  ret void
}